; Function Attrs: mustprogress uwtable
define internal fastcc void @_ZN32pxrInternal_v0_24__pxrReserved__L23_GetSlopeToAdjacentKnotEN9__gnu_cxx17__normal_iteratorIPKNS_10TsKeyFrameESt6vectorIS2_SaIS2_EEEENS_6TsSideE(ptr dead_on_unwind noalias writable align 8 %0, ptr %1, i32 noundef %2) unnamed_addr #3 {
  %4 = icmp eq i32 %2, 1
  %.sroa.02.0.idx = select i1 %4, i64 0, i64 -72
  %.sroa.02.0 = getelementptr inbounds i8, ptr %1, i64 %.sroa.02.0.idx
  %.sroa.0.0.idx = select i1 %4, i64 72, i64 0
  %.sroa.0.0 = getelementptr inbounds i8, ptr %1, i64 %.sroa.0.0.idx
  %5 = tail call noundef ptr @_ZN32pxrInternal_v0_24__pxrReserved__18Ts_GetKeyFrameDataERKNS_10TsKeyFrameE(ptr noundef nonnull align 8 dereferenceable(72) %.sroa.02.0)
  %6 = tail call noundef ptr @_ZN32pxrInternal_v0_24__pxrReserved__18Ts_GetKeyFrameDataERKNS_10TsKeyFrameE(ptr noundef nonnull align 8 dereferenceable(72) %.sroa.0.0)
  %7 = load ptr, ptr %5, align 8
  %8 = getelementptr inbounds i8, ptr %7, i64 168
  %9 = load ptr, ptr %8, align 8
  tail call void %9(ptr dead_on_unwind writable sret(%"class.pxrInternal_v0_24__pxrReserved__::VtValue") align 8 %0, ptr noundef nonnull align 8 dereferenceable(16) %5, ptr noundef nonnull align 8 dereferenceable(16) %6)
  ret void
}